target datalayout = "e-m:e-p270:32:32-p271:32:32-p272:64:64-i64:64-i128:128-f80:128-n8:16:32:64-S128"
target triple = "x86_64-pc-linux-gnu"

%struct.blake2b_state = type <{ [8 x i64], [2 x i64], [2 x i64], [256 x i8], i64, i8 }>
%struct.blake2b_param_ = type { i8, i8, i8, i8, [4 x i8], [8 x i8], i8, i8, [14 x i8], [16 x i8], [16 x i8] }

@blake2b_IV = internal constant [8 x i64] [i64 7640891576956012808, i64 -4942790177534073029, i64 4354685564936845355, i64 -6534734903238641935, i64 5840696475078001361, i64 -7276294671716946913, i64 2270897969802886507, i64 6620516959819538809], align 16

; Function Attrs: inlinehint nounwind ssp uwtable
define internal i64 @load64_le(ptr noundef %0) #2 {
  %2 = alloca ptr, align 8
  %3 = alloca i64, align 8
  store ptr %0, ptr %2, align 8
  call void @llvm.lifetime.start.p0(i64 8, ptr %3) #8
  %4 = load ptr, ptr %2, align 8
  %5 = call ptr @memcpy.inline(ptr noundef %3, ptr noundef %4, i64 noundef 8) #8
  %6 = load i64, ptr %3, align 8
  call void @llvm.lifetime.end.p0(i64 8, ptr %3) #8
  ret i64 %6
}

; Function Attrs: inlinehint nounwind ssp uwtable
define internal i32 @blake2b_init0(ptr noundef %0) #2 {
  %2 = alloca ptr, align 8
  %3 = alloca i32, align 4
  store ptr %0, ptr %2, align 8
  call void @llvm.lifetime.start.p0(i64 4, ptr %3) #8
  store i32 0, ptr %3, align 4
  br label %4

4:                                                ; preds = %17, %1
  %5 = load i32, ptr %3, align 4
  %6 = icmp slt i32 %5, 8
  br i1 %6, label %7, label %20

7:                                                ; preds = %4
  %8 = load i32, ptr %3, align 4
  %9 = sext i32 %8 to i64
  %10 = getelementptr [8 x i64], ptr @blake2b_IV, i64 0, i64 %9
  %11 = load i64, ptr %10, align 8
  %12 = load ptr, ptr %2, align 8
  %13 = getelementptr inbounds nuw %struct.blake2b_state, ptr %12, i32 0, i32 0
  %14 = load i32, ptr %3, align 4
  %15 = sext i32 %14 to i64
  %16 = getelementptr [8 x i64], ptr %13, i64 0, i64 %15
  store i64 %11, ptr %16, align 1
  br label %17

17:                                               ; preds = %7
  %18 = load i32, ptr %3, align 4
  %19 = add i32 %18, 1
  store i32 %19, ptr %3, align 4
  br label %4, !llvm.loop !6

20:                                               ; preds = %4
  %21 = load ptr, ptr %2, align 8
  %22 = getelementptr inbounds nuw %struct.blake2b_state, ptr %21, i32 0, i32 1
  %23 = call ptr @memset.inline(ptr noundef %22, i32 noundef 0, i64 noundef 297) #8
  call void @llvm.lifetime.end.p0(i64 4, ptr %3) #8
  ret i32 0
}

; Function Attrs: alwaysinline nounwind
define internal ptr @memcpy.inline(ptr noalias nonnull %0, ptr noalias nonnull %1, i64 %2) #4 {
  %4 = alloca ptr, align 8
  %5 = alloca ptr, align 8
  %6 = alloca i64, align 8
  store ptr %0, ptr %4, align 8
  store ptr %1, ptr %5, align 8
  store i64 %2, ptr %6, align 8
  %7 = load ptr, ptr %4, align 8
  %8 = load ptr, ptr %5, align 8
  %9 = load i64, ptr %6, align 8
  %10 = load ptr, ptr %4, align 8
  %11 = call i64 @llvm.objectsize.i64.p0(ptr %10, i1 false, i1 true, i1 true)
  %12 = call ptr @__memcpy_chk(ptr noundef %7, ptr noundef %8, i64 noundef %9, i64 noundef %11) #8
  ret ptr %12
}

; Function Attrs: nounwind ssp uwtable
define hidden i32 @_sodium_blake2b_init_param(ptr noundef %0, ptr noundef %1) #0 {
  %3 = alloca ptr, align 8
  %4 = alloca ptr, align 8
  %5 = alloca i64, align 8
  %6 = alloca ptr, align 8
  store ptr %0, ptr %3, align 8
  store ptr %1, ptr %4, align 8
  call void @llvm.lifetime.start.p0(i64 8, ptr %5) #8
  call void @llvm.lifetime.start.p0(i64 8, ptr %6) #8
  %7 = load ptr, ptr %3, align 8
  %8 = call i32 @blake2b_init0(ptr noundef %7)
  %9 = load ptr, ptr %4, align 8
  store ptr %9, ptr %6, align 8
  store i64 0, ptr %5, align 8
  br label %10

10:                                               ; preds = %25, %2
  %11 = load i64, ptr %5, align 8
  %12 = icmp ult i64 %11, 8
  br i1 %12, label %13, label %28

13:                                               ; preds = %10
  %14 = load ptr, ptr %6, align 8
  %15 = load i64, ptr %5, align 8
  %16 = mul i64 8, %15
  %17 = getelementptr i8, ptr %14, i64 %16
  %18 = call i64 @load64_le(ptr noundef %17)
  %19 = load ptr, ptr %3, align 8
  %20 = getelementptr inbounds nuw %struct.blake2b_state, ptr %19, i32 0, i32 0
  %21 = load i64, ptr %5, align 8
  %22 = getelementptr [8 x i64], ptr %20, i64 0, i64 %21
  %23 = load i64, ptr %22, align 1
  %24 = xor i64 %23, %18
  store i64 %24, ptr %22, align 1
  br label %25

25:                                               ; preds = %13
  %26 = load i64, ptr %5, align 8
  %27 = add i64 %26, 1
  store i64 %27, ptr %5, align 8
  br label %10, !llvm.loop !4

28:                                               ; preds = %10
  call void @llvm.lifetime.end.p0(i64 8, ptr %6) #8
  call void @llvm.lifetime.end.p0(i64 8, ptr %5) #8
  ret i32 0
}

; Function Attrs: inlinehint nounwind ssp uwtable
define internal i32 @blake2b_param_set_personal(ptr noundef %0, ptr noundef %1) #2 {
  %3 = alloca ptr, align 8
  %4 = alloca ptr, align 8
  store ptr %0, ptr %3, align 8
  store ptr %1, ptr %4, align 8
  %5 = load ptr, ptr %3, align 8
  %6 = getelementptr inbounds nuw %struct.blake2b_param_, ptr %5, i32 0, i32 10
  %7 = getelementptr inbounds [16 x i8], ptr %6, i64 0, i64 0
  %8 = load ptr, ptr %4, align 8
  %9 = call ptr @memcpy.inline(ptr noundef %7, ptr noundef %8, i64 noundef 16) #8
  ret i32 0
}

; Function Attrs: inlinehint nounwind ssp uwtable
define internal i32 @blake2b_param_set_salt(ptr noundef %0, ptr noundef %1) #2 {
  %3 = alloca ptr, align 8
  %4 = alloca ptr, align 8
  store ptr %0, ptr %3, align 8
  store ptr %1, ptr %4, align 8
  %5 = load ptr, ptr %3, align 8
  %6 = getelementptr inbounds nuw %struct.blake2b_param_, ptr %5, i32 0, i32 9
  %7 = getelementptr inbounds [16 x i8], ptr %6, i64 0, i64 0
  %8 = load ptr, ptr %4, align 8
  %9 = call ptr @memcpy.inline(ptr noundef %7, ptr noundef %8, i64 noundef 16) #8
  ret i32 0
}

; Function Attrs: alwaysinline nounwind
define internal ptr @memset.inline(ptr nonnull %0, i32 %1, i64 %2) #4 {
  %4 = alloca ptr, align 8
  %5 = alloca i32, align 4
  %6 = alloca i64, align 8
  store ptr %0, ptr %4, align 8
  store i32 %1, ptr %5, align 4
  store i64 %2, ptr %6, align 8
  %7 = load ptr, ptr %4, align 8
  %8 = load i32, ptr %5, align 4
  %9 = load i64, ptr %6, align 8
  %10 = load ptr, ptr %4, align 8
  %11 = call i64 @llvm.objectsize.i64.p0(ptr %10, i1 false, i1 true, i1 true)
  %12 = call ptr @__memset_chk(ptr noundef %7, i32 noundef %8, i64 noundef %9, i64 noundef %11) #8
  ret ptr %12
}

; Function Attrs: inlinehint nounwind ssp uwtable
define internal void @store64_le(ptr noundef %0, i64 noundef %1) #2 {
  %3 = alloca ptr, align 8
  %4 = alloca i64, align 8
  store ptr %0, ptr %3, align 8
  store i64 %1, ptr %4, align 8
  %5 = load ptr, ptr %3, align 8
  %6 = call ptr @memcpy.inline(ptr noundef %5, ptr noundef %4, i64 noundef 8) #8
  ret void
}

; Function Attrs: inlinehint nounwind ssp uwtable
define internal void @store32_le(ptr noundef %0, i32 noundef %1) #2 {
  %3 = alloca ptr, align 8
  %4 = alloca i32, align 4
  store ptr %0, ptr %3, align 8
  store i32 %1, ptr %4, align 4
  %5 = load ptr, ptr %3, align 8
  %6 = call ptr @memcpy.inline(ptr noundef %5, ptr noundef %4, i64 noundef 4) #8
  ret void
}

; Function Attrs: nounwind ssp uwtable
define hidden i32 @_sodium_blake2b_init_salt_personal(ptr noundef %0, i8 noundef zeroext %1, ptr noundef %2, ptr noundef %3) #0 {
  %5 = alloca ptr, align 8
  %6 = alloca i8, align 1
  %7 = alloca ptr, align 8
  %8 = alloca ptr, align 8
  %9 = alloca [1 x %struct.blake2b_param_], align 16
  store ptr %0, ptr %5, align 8
  store i8 %1, ptr %6, align 1
  store ptr %2, ptr %7, align 8
  store ptr %3, ptr %8, align 8
  call void @llvm.lifetime.start.p0(i64 64, ptr %9) #8
  %10 = load i8, ptr %6, align 1
  %11 = icmp ne i8 %10, 0
  br i1 %11, label %12, label %16

12:                                               ; preds = %4
  %13 = load i8, ptr %6, align 1
  %14 = zext i8 %13 to i32
  %15 = icmp sgt i32 %14, 64
  br i1 %15, label %16, label %17

16:                                               ; preds = %12, %4
  call void @sodium_misuse() #9
  unreachable

17:                                               ; preds = %12
  %18 = load i8, ptr %6, align 1
  %19 = getelementptr inbounds [1 x %struct.blake2b_param_], ptr %9, i64 0, i64 0
  %20 = getelementptr inbounds nuw %struct.blake2b_param_, ptr %19, i32 0, i32 0
  store i8 %18, ptr %20, align 16
  %21 = getelementptr inbounds [1 x %struct.blake2b_param_], ptr %9, i64 0, i64 0
  %22 = getelementptr inbounds nuw %struct.blake2b_param_, ptr %21, i32 0, i32 1
  store i8 0, ptr %22, align 1
  %23 = getelementptr inbounds [1 x %struct.blake2b_param_], ptr %9, i64 0, i64 0
  %24 = getelementptr inbounds nuw %struct.blake2b_param_, ptr %23, i32 0, i32 2
  store i8 1, ptr %24, align 2
  %25 = getelementptr inbounds [1 x %struct.blake2b_param_], ptr %9, i64 0, i64 0
  %26 = getelementptr inbounds nuw %struct.blake2b_param_, ptr %25, i32 0, i32 3
  store i8 1, ptr %26, align 1
  %27 = getelementptr inbounds [1 x %struct.blake2b_param_], ptr %9, i64 0, i64 0
  %28 = getelementptr inbounds nuw %struct.blake2b_param_, ptr %27, i32 0, i32 4
  %29 = getelementptr inbounds [4 x i8], ptr %28, i64 0, i64 0
  call void @store32_le(ptr noundef %29, i32 noundef 0)
  %30 = getelementptr inbounds [1 x %struct.blake2b_param_], ptr %9, i64 0, i64 0
  %31 = getelementptr inbounds nuw %struct.blake2b_param_, ptr %30, i32 0, i32 5
  %32 = getelementptr inbounds [8 x i8], ptr %31, i64 0, i64 0
  call void @store64_le(ptr noundef %32, i64 noundef 0)
  %33 = getelementptr inbounds [1 x %struct.blake2b_param_], ptr %9, i64 0, i64 0
  %34 = getelementptr inbounds nuw %struct.blake2b_param_, ptr %33, i32 0, i32 6
  store i8 0, ptr %34, align 16
  %35 = getelementptr inbounds [1 x %struct.blake2b_param_], ptr %9, i64 0, i64 0
  %36 = getelementptr inbounds nuw %struct.blake2b_param_, ptr %35, i32 0, i32 7
  store i8 0, ptr %36, align 1
  %37 = getelementptr inbounds [1 x %struct.blake2b_param_], ptr %9, i64 0, i64 0
  %38 = getelementptr inbounds nuw %struct.blake2b_param_, ptr %37, i32 0, i32 8
  %39 = getelementptr inbounds [14 x i8], ptr %38, i64 0, i64 0
  %40 = call ptr @memset.inline(ptr noundef %39, i32 noundef 0, i64 noundef 14) #8
  %41 = load ptr, ptr %7, align 8
  %42 = icmp ne ptr %41, null
  br i1 %42, label %43, label %47

43:                                               ; preds = %17
  %44 = getelementptr inbounds [1 x %struct.blake2b_param_], ptr %9, i64 0, i64 0
  %45 = load ptr, ptr %7, align 8
  %46 = call i32 @blake2b_param_set_salt(ptr noundef %44, ptr noundef %45)
  br label %52

47:                                               ; preds = %17
  %48 = getelementptr inbounds [1 x %struct.blake2b_param_], ptr %9, i64 0, i64 0
  %49 = getelementptr inbounds nuw %struct.blake2b_param_, ptr %48, i32 0, i32 9
  %50 = getelementptr inbounds [16 x i8], ptr %49, i64 0, i64 0
  %51 = call ptr @memset.inline(ptr noundef %50, i32 noundef 0, i64 noundef 16) #8
  br label %52

52:                                               ; preds = %47, %43
  %53 = load ptr, ptr %8, align 8
  %54 = icmp ne ptr %53, null
  br i1 %54, label %55, label %59

55:                                               ; preds = %52
  %56 = getelementptr inbounds [1 x %struct.blake2b_param_], ptr %9, i64 0, i64 0
  %57 = load ptr, ptr %8, align 8
  %58 = call i32 @blake2b_param_set_personal(ptr noundef %56, ptr noundef %57)
  br label %64

59:                                               ; preds = %52
  %60 = getelementptr inbounds [1 x %struct.blake2b_param_], ptr %9, i64 0, i64 0
  %61 = getelementptr inbounds nuw %struct.blake2b_param_, ptr %60, i32 0, i32 10
  %62 = getelementptr inbounds [16 x i8], ptr %61, i64 0, i64 0
  %63 = call ptr @memset.inline(ptr noundef %62, i32 noundef 0, i64 noundef 16) #8
  br label %64

64:                                               ; preds = %59, %55
  %65 = load ptr, ptr %5, align 8
  %66 = getelementptr inbounds [1 x %struct.blake2b_param_], ptr %9, i64 0, i64 0
  %67 = call i32 @_sodium_blake2b_init_param(ptr noundef %65, ptr noundef %66)
  call void @llvm.lifetime.end.p0(i64 64, ptr %9) #8
  ret i32 %67
}

; Function Attrs: nounwind ssp uwtable
define hidden i32 @_sodium_blake2b_salt_personal(ptr noundef %0, ptr noundef %1, ptr noundef %2, i8 noundef zeroext %3, i64 noundef %4, i8 noundef zeroext %5, ptr noundef %6, ptr noundef %7) #0 {
  %9 = alloca ptr, align 8
  %10 = alloca ptr, align 8
  %11 = alloca ptr, align 8
  %12 = alloca i8, align 1
  %13 = alloca i64, align 8
  %14 = alloca i8, align 1
  %15 = alloca ptr, align 8
  %16 = alloca ptr, align 8
  %17 = alloca [1 x %struct.blake2b_state], align 64
  store ptr %0, ptr %9, align 8
  store ptr %1, ptr %10, align 8
  store ptr %2, ptr %11, align 8
  store i8 %3, ptr %12, align 1
  store i64 %4, ptr %13, align 8
  store i8 %5, ptr %14, align 1
  store ptr %6, ptr %15, align 8
  store ptr %7, ptr %16, align 8
  call void @llvm.lifetime.start.p0(i64 361, ptr %17) #8
  %18 = load ptr, ptr %10, align 8
  %19 = icmp eq ptr null, %18
  br i1 %19, label %20, label %24

20:                                               ; preds = %8
  %21 = load i64, ptr %13, align 8
  %22 = icmp ugt i64 %21, 0
  br i1 %22, label %23, label %24

23:                                               ; preds = %20
  call void @sodium_misuse() #9
  unreachable

24:                                               ; preds = %20, %8
  %25 = load ptr, ptr %9, align 8
  %26 = icmp eq ptr null, %25
  br i1 %26, label %27, label %28

27:                                               ; preds = %24
  call void @sodium_misuse() #9
  unreachable

28:                                               ; preds = %24
  %29 = load i8, ptr %12, align 1
  %30 = icmp ne i8 %29, 0
  br i1 %30, label %31, label %35

31:                                               ; preds = %28
  %32 = load i8, ptr %12, align 1
  %33 = zext i8 %32 to i32
  %34 = icmp sgt i32 %33, 64
  br i1 %34, label %35, label %36

35:                                               ; preds = %31, %28
  call void @sodium_misuse() #9
  unreachable

36:                                               ; preds = %31
  %37 = load ptr, ptr %11, align 8
  %38 = icmp eq ptr null, %37
  br i1 %38, label %39, label %44

39:                                               ; preds = %36
  %40 = load i8, ptr %14, align 1
  %41 = zext i8 %40 to i32
  %42 = icmp sgt i32 %41, 0
  br i1 %42, label %43, label %44

43:                                               ; preds = %39
  call void @sodium_misuse() #9
  unreachable

44:                                               ; preds = %39, %36
  %45 = load i8, ptr %14, align 1
  %46 = zext i8 %45 to i32
  %47 = icmp sgt i32 %46, 64
  br i1 %47, label %48, label %49

48:                                               ; preds = %44
  call void @sodium_misuse() #9
  unreachable

49:                                               ; preds = %44
  %50 = load i8, ptr %14, align 1
  %51 = zext i8 %50 to i32
  %52 = icmp sgt i32 %51, 0
  br i1 %52, label %53, label %64

53:                                               ; preds = %49
  %54 = getelementptr inbounds [1 x %struct.blake2b_state], ptr %17, i64 0, i64 0
  %55 = load i8, ptr %12, align 1
  %56 = load ptr, ptr %11, align 8
  %57 = load i8, ptr %14, align 1
  %58 = load ptr, ptr %15, align 8
  %59 = load ptr, ptr %16, align 8
  %60 = call i32 @_sodium_blake2b_init_key_salt_personal(ptr noundef %54, i8 noundef zeroext %55, ptr noundef %56, i8 noundef zeroext %57, ptr noundef %58, ptr noundef %59)
  %61 = icmp slt i32 %60, 0
  br i1 %61, label %62, label %63

62:                                               ; preds = %53
  call void @sodium_misuse() #9
  unreachable

63:                                               ; preds = %53
  br label %73

64:                                               ; preds = %49
  %65 = getelementptr inbounds [1 x %struct.blake2b_state], ptr %17, i64 0, i64 0
  %66 = load i8, ptr %12, align 1
  %67 = load ptr, ptr %15, align 8
  %68 = load ptr, ptr %16, align 8
  %69 = call i32 @_sodium_blake2b_init_salt_personal(ptr noundef %65, i8 noundef zeroext %66, ptr noundef %67, ptr noundef %68)
  %70 = icmp slt i32 %69, 0
  br i1 %70, label %71, label %72

71:                                               ; preds = %64
  call void @sodium_misuse() #9
  unreachable

72:                                               ; preds = %64
  br label %73

73:                                               ; preds = %72, %63
  %74 = getelementptr inbounds [1 x %struct.blake2b_state], ptr %17, i64 0, i64 0
  %75 = load ptr, ptr %10, align 8
  %76 = load i64, ptr %13, align 8
  %77 = call i32 @_sodium_blake2b_update(ptr noundef %74, ptr noundef %75, i64 noundef %76)
  %78 = getelementptr inbounds [1 x %struct.blake2b_state], ptr %17, i64 0, i64 0
  %79 = load ptr, ptr %9, align 8
  %80 = load i8, ptr %12, align 1
  %81 = call i32 @_sodium_blake2b_final(ptr noundef %78, ptr noundef %79, i8 noundef zeroext %80)
  call void @llvm.lifetime.end.p0(i64 361, ptr %17) #8
  ret i32 0
}