; Function Attrs: nounwind ssp uwtable
define hidden noundef i32 @_sodium_blake2b_salt_personal(ptr noundef %0, ptr noundef readonly captures(address_is_null) %1, ptr noundef captures(address_is_null) %2, i8 noundef zeroext %3, i64 noundef %4, i8 noundef zeroext %5, ptr noundef captures(address_is_null) %6, ptr noundef captures(address_is_null) %7) local_unnamed_addr #2 {
  %9 = alloca [1 x %struct.blake2b_param_], align 16
  %10 = alloca [1 x %struct.blake2b_state], align 64
  call void @llvm.lifetime.start.p0(i64 361, ptr nonnull %10) #8
  %11 = icmp eq ptr %1, null
  %12 = icmp ne i64 %4, 0
  %or.cond = and i1 %11, %12
  br i1 %or.cond, label %13, label %14

13:                                               ; preds = %8
  tail call void @sodium_misuse() #9
  unreachable

14:                                               ; preds = %8
  %15 = icmp eq ptr %0, null
  br i1 %15, label %16, label %17

16:                                               ; preds = %14
  tail call void @sodium_misuse() #9
  unreachable

17:                                               ; preds = %14
  %18 = add i8 %3, -65
  %or.cond4 = icmp ult i8 %18, -64
  br i1 %or.cond4, label %19, label %20

19:                                               ; preds = %17
  tail call void @sodium_misuse() #9
  unreachable

20:                                               ; preds = %17
  %21 = icmp eq ptr %2, null
  %22 = icmp ne i8 %5, 0
  %or.cond7 = and i1 %21, %22
  br i1 %or.cond7, label %23, label %24

23:                                               ; preds = %20
  tail call void @sodium_misuse() #9
  unreachable

24:                                               ; preds = %20
  %25 = icmp ugt i8 %5, 64
  br i1 %25, label %26, label %27

26:                                               ; preds = %24
  tail call void @sodium_misuse() #9
  unreachable

27:                                               ; preds = %24
  br i1 %22, label %28, label %30

28:                                               ; preds = %27
  %29 = call i32 @_sodium_blake2b_init_key_salt_personal(ptr noundef nonnull %10, i8 noundef zeroext %3, ptr noundef %2, i8 noundef zeroext %5, ptr noundef %6, ptr noundef %7)
  br label %52

30:                                               ; preds = %27
  call void @llvm.lifetime.start.p0(i64 64, ptr nonnull %9) #8
  store i8 %3, ptr %9, align 16
  %31 = getelementptr inbounds nuw i8, ptr %9, i64 1
  store i8 0, ptr %31, align 1
  %32 = getelementptr inbounds nuw i8, ptr %9, i64 2
  store i8 1, ptr %32, align 2
  %33 = getelementptr inbounds nuw i8, ptr %9, i64 3
  store i8 1, ptr %33, align 1
  %34 = getelementptr inbounds nuw i8, ptr %9, i64 4
  %.not.i = icmp eq ptr %6, null
  call void @llvm.memset.p0.i64(ptr noundef nonnull align 4 dereferenceable(28) %34, i8 0, i64 28, i1 false)
  %35 = getelementptr inbounds nuw i8, ptr %9, i64 32
  br i1 %.not.i, label %37, label %36

36:                                               ; preds = %30
  call void @llvm.memcpy.p0.p0.i64(ptr noundef nonnull align 16 dereferenceable(16) %35, ptr noundef nonnull readonly align 1 dereferenceable(16) %6, i64 noundef 16, i1 noundef false) #8
  br label %38

37:                                               ; preds = %30
  call void @llvm.memset.p0.i64(ptr noundef nonnull align 16 dereferenceable(16) %35, i8 noundef 0, i64 noundef 16, i1 noundef false) #8
  br label %38

38:                                               ; preds = %37, %36
  %.not11.i = icmp eq ptr %7, null
  %39 = getelementptr inbounds nuw i8, ptr %9, i64 48
  br i1 %.not11.i, label %41, label %40

40:                                               ; preds = %38
  call void @llvm.memcpy.p0.p0.i64(ptr noundef nonnull align 16 dereferenceable(16) %39, ptr noundef nonnull readonly align 1 dereferenceable(16) %7, i64 noundef 16, i1 noundef false) #8
  br label %42

41:                                               ; preds = %38
  call void @llvm.memset.p0.i64(ptr noundef nonnull align 16 dereferenceable(16) %39, i8 noundef 0, i64 noundef 16, i1 noundef false) #8
  br label %42

42:                                               ; preds = %41, %40
  call void @llvm.memcpy.p0.p0.i64(ptr noundef nonnull align 64 dereferenceable(64) %10, ptr noundef nonnull align 16 dereferenceable(64) @blake2b_IV, i64 64, i1 false)
  %43 = getelementptr inbounds nuw i8, ptr %10, i64 64
  call void @llvm.memset.p0.i64(ptr noundef nonnull align 64 dereferenceable(297) %43, i8 noundef 0, i64 noundef 297, i1 noundef false) #8
  br label %44

44:                                               ; preds = %44, %42
  %.07.i.i = phi i64 [ 0, %42 ], [ %51, %44 ]
  %45 = shl nuw nsw i64 %.07.i.i, 3
  %46 = getelementptr i8, ptr %9, i64 %45
  %47 = load i64, ptr %46, align 8
  %48 = getelementptr [8 x i64], ptr %10, i64 0, i64 %.07.i.i
  %49 = load i64, ptr %48, align 8
  %50 = xor i64 %49, %47
  store i64 %50, ptr %48, align 8
  %51 = add nuw nsw i64 %.07.i.i, 1
  %exitcond.not.i.i = icmp eq i64 %51, 8
  br i1 %exitcond.not.i.i, label %_sodium_blake2b_init_salt_personal.exit, label %44, !llvm.loop !4

_sodium_blake2b_init_salt_personal.exit:          ; preds = %44
  call void @llvm.lifetime.end.p0(i64 64, ptr nonnull %9) #8
  br label %52

52:                                               ; preds = %_sodium_blake2b_init_salt_personal.exit, %28
  %53 = call i32 @_sodium_blake2b_update(ptr noundef nonnull %10, ptr noundef %1, i64 noundef %4)
  %54 = call i32 @_sodium_blake2b_final(ptr noundef nonnull %10, ptr noundef nonnull %0, i8 noundef zeroext %3)
  call void @llvm.lifetime.end.p0(i64 361, ptr nonnull %10) #8
  ret i32 0
}